; Function Attrs: nounwind uwtable
define dso_local void @ldbTrace(ptr noundef %0) local_unnamed_addr #0 {
  %2 = alloca %struct.lua_Debug, align 8
  call void @llvm.lifetime.start.p0(i64 120, ptr nonnull %2) #19
  %3 = call i32 @lua_getstack(ptr noundef %0, i32 noundef 0, ptr noundef nonnull %2) #19
  %.not8 = icmp eq i32 %3, 0
  br i1 %.not8, label %._crit_edge.thread, label %.lr.ph

.lr.ph:                                           ; preds = %1
  %4 = getelementptr inbounds nuw i8, ptr %2, i64 56
  %5 = getelementptr inbounds nuw i8, ptr %2, i64 8
  %6 = getelementptr inbounds nuw i8, ptr %2, i64 40
  br label %7

7:                                                ; preds = %.lr.ph, %42
  %.09 = phi i32 [ 0, %.lr.ph ], [ %43, %42 ]
  %8 = call i32 @lua_getinfo(ptr noundef %0, ptr noundef nonnull @.str.128, ptr noundef nonnull %2) #19
  %9 = call ptr @strstr(ptr noundef nonnull dereferenceable(1) %4, ptr noundef nonnull dereferenceable(1) @.str.129) #18
  %.not5 = icmp eq ptr %9, null
  br i1 %.not5, label %42, label %10

10:                                               ; preds = %7
  %11 = call ptr @sdsempty() #19
  %12 = icmp eq i32 %.09, 0
  %13 = select i1 %12, ptr @.str.131, ptr @.str.132
  %14 = load ptr, ptr %5, align 8, !tbaa !167
  %.not6 = icmp eq ptr %14, null
  %15 = select i1 %.not6, ptr @.str.133, ptr %14
  %16 = call ptr (ptr, ptr, ...) @sdscatprintf(ptr noundef %11, ptr noundef nonnull @.str.130, ptr noundef nonnull %13, ptr noundef nonnull %15) #19
  %17 = load ptr, ptr getelementptr inbounds nuw (i8, ptr @ldb, i64 16), align 8, !tbaa !26
  %18 = call ptr @listAddNodeTail(ptr noundef %17, ptr noundef %16) #19
  %19 = load i32, ptr %6, align 8, !tbaa !169
  %20 = icmp slt i32 %19, 1
  %21 = load i32, ptr getelementptr inbounds nuw (i8, ptr @ldb, i64 320), align 8
  %.not.not.i.i = icmp sgt i32 %19, %21
  %or.cond.i.i = select i1 %20, i1 true, i1 %.not.not.i.i
  br i1 %or.cond.i.i, label %ldbGetSourceLine.exit.i, label %22

22:                                               ; preds = %10
  %23 = load ptr, ptr getelementptr inbounds nuw (i8, ptr @ldb, i64 312), align 8, !tbaa !58
  %24 = zext nneg i32 %19 to i64
  %25 = getelementptr ptr, ptr %23, i64 %24
  %26 = getelementptr i8, ptr %25, i64 -8
  %27 = load ptr, ptr %26, align 8, !tbaa !92
  br label %ldbGetSourceLine.exit.i

ldbGetSourceLine.exit.i:                          ; preds = %22, %10
  %.0.i.i = phi ptr [ %27, %22 ], [ @.str.72, %10 ]
  %28 = load i32, ptr getelementptr inbounds nuw (i8, ptr @ldb, i64 296), align 8, !tbaa !140
  %29 = icmp sgt i32 %28, 0
  br i1 %29, label %.lr.ph.preheader.i.i, label %ldbLogSourceLine.exit

.lr.ph.preheader.i.i:                             ; preds = %ldbGetSourceLine.exit.i
  %wide.trip.count.i.i = zext nneg i32 %28 to i64
  br label %.lr.ph.i.i

30:                                               ; preds = %.lr.ph.i.i
  %indvars.iv.next.i.i = add nuw nsw i64 %indvars.iv.i.i, 1
  %exitcond.not.i.i = icmp eq i64 %indvars.iv.next.i.i, %wide.trip.count.i.i
  br i1 %exitcond.not.i.i, label %ldbLogSourceLine.exit, label %.lr.ph.i.i, !llvm.loop !154

.lr.ph.i.i:                                       ; preds = %30, %.lr.ph.preheader.i.i
  %indvars.iv.i.i = phi i64 [ 0, %.lr.ph.preheader.i.i ], [ %indvars.iv.next.i.i, %30 ]
  %31 = getelementptr inbounds nuw [64 x i32], ptr getelementptr inbounds nuw (i8, ptr @ldb, i64 40), i64 0, i64 %indvars.iv.i.i
  %32 = load i32, ptr %31, align 4, !tbaa !91
  %33 = icmp eq i32 %32, %19
  br i1 %33, label %ldbLogSourceLine.exit, label %30

ldbLogSourceLine.exit:                            ; preds = %30, %.lr.ph.i.i, %ldbGetSourceLine.exit.i
  %34 = phi ptr [ @.str.77, %ldbGetSourceLine.exit.i ], [ @.str.76, %.lr.ph.i.i ], [ @.str.77, %30 ]
  %35 = phi ptr [ @.str.75, %ldbGetSourceLine.exit.i ], [ @.str.74, %.lr.ph.i.i ], [ @.str.75, %30 ]
  %36 = load i32, ptr getelementptr inbounds nuw (i8, ptr @ldb, i64 324), align 4, !tbaa !24
  %37 = icmp eq i32 %36, %19
  %.0.i = select i1 %37, ptr %35, ptr %34
  %38 = call ptr @sdsempty() #19
  %39 = call ptr (ptr, ptr, ...) @sdscatprintf(ptr noundef %38, ptr noundef nonnull @.str.78, ptr noundef nonnull %.0.i, i32 noundef %19, ptr noundef %.0.i.i) #19
  %40 = load ptr, ptr getelementptr inbounds nuw (i8, ptr @ldb, i64 16), align 8, !tbaa !26
  %41 = call ptr @listAddNodeTail(ptr noundef %40, ptr noundef %39) #19
  br label %42

42:                                               ; preds = %ldbLogSourceLine.exit, %7
  %43 = add nuw nsw i32 %.09, 1
  %44 = call i32 @lua_getstack(ptr noundef %0, i32 noundef %43, ptr noundef nonnull %2) #19
  %.not = icmp eq i32 %44, 0
  br i1 %.not, label %._crit_edge, label %7, !llvm.loop !170

._crit_edge.thread:                               ; preds = %1
  %45 = call ptr @sdsnew(ptr noundef nonnull @.str.134) #19
  %46 = load ptr, ptr getelementptr inbounds nuw (i8, ptr @ldb, i64 16), align 8, !tbaa !26
  %47 = call ptr @listAddNodeTail(ptr noundef %46, ptr noundef %45) #19
  br label %._crit_edge

._crit_edge:                                      ; preds = %42, %._crit_edge.thread
  call void @llvm.lifetime.end.p0(i64 120, ptr nonnull %2) #19
  ret void
}